target datalayout = "e-m:e-p270:32:32-p271:32:32-p272:64:64-i64:64-i128:128-f80:128-n8:16:32:64-S128"
target triple = "x86_64-pc-linux-gnu"

%struct.ISzAlloc = type { ptr, ptr }
%struct._IStateCoder = type { ptr, ptr, ptr, ptr, ptr }
%struct.CMixCoder = type { ptr, ptr, i32, [3 x i32], [3 x i64], [3 x i64], [4 x i64], [4 x %struct._IStateCoder] }
%struct.CXzBlock = type { i64, i64, i8, [4 x %struct.CXzFilter] }
%struct.CXzFilter = type { i64, i32, [20 x i8] }
%struct.CXzUnpacker = type { i32, i32, i32, i32, i16, i32, i64, i64, i64, i64, i64, i64, i64, i32, %struct.CMixCoder, %struct.CXzBlock, %struct.CXzCheck, ptr, [32 x i8], [1024 x i8] }
%struct.CXzCheck = type { i32, i32, i64, ptr }

; Function Attrs: nounwind uwtable
define void @MixCoder_Free(ptr noundef %0) #0 {
  %2 = alloca ptr, align 8
  %3 = alloca i32, align 4
  %4 = alloca ptr, align 8
  store ptr %0, ptr %2, align 8
  store i32 0, ptr %3, align 4
  br label %5

5:                                                ; preds = %37, %1
  %6 = load i32, ptr %3, align 4
  %7 = load ptr, ptr %2, align 8
  %8 = getelementptr inbounds %struct.CMixCoder, ptr %7, i32 0, i32 2
  %9 = load i32, ptr %8, align 8
  %10 = icmp slt i32 %6, %9
  br i1 %10, label %11, label %40

11:                                               ; preds = %5
  %12 = load ptr, ptr %2, align 8
  %13 = getelementptr inbounds %struct.CMixCoder, ptr %12, i32 0, i32 7
  %14 = load i32, ptr %3, align 4
  %15 = sext i32 %14 to i64
  %16 = getelementptr inbounds [4 x %struct._IStateCoder], ptr %13, i64 0, i64 %15
  store ptr %16, ptr %4, align 8
  %17 = load ptr, ptr %2, align 8
  %18 = getelementptr inbounds %struct.CMixCoder, ptr %17, i32 0, i32 0
  %19 = load ptr, ptr %18, align 8
  %20 = icmp ne ptr %19, null
  br i1 %20, label %21, label %36

21:                                               ; preds = %11
  %22 = load ptr, ptr %4, align 8
  %23 = getelementptr inbounds %struct._IStateCoder, ptr %22, i32 0, i32 0
  %24 = load ptr, ptr %23, align 8
  %25 = icmp ne ptr %24, null
  br i1 %25, label %26, label %36

26:                                               ; preds = %21
  %27 = load ptr, ptr %4, align 8
  %28 = getelementptr inbounds %struct._IStateCoder, ptr %27, i32 0, i32 1
  %29 = load ptr, ptr %28, align 8
  %30 = load ptr, ptr %4, align 8
  %31 = getelementptr inbounds %struct._IStateCoder, ptr %30, i32 0, i32 0
  %32 = load ptr, ptr %31, align 8
  %33 = load ptr, ptr %2, align 8
  %34 = getelementptr inbounds %struct.CMixCoder, ptr %33, i32 0, i32 0
  %35 = load ptr, ptr %34, align 8
  call void %29(ptr noundef %32, ptr noundef %35)
  br label %36

36:                                               ; preds = %26, %21, %11
  br label %37

37:                                               ; preds = %36
  %38 = load i32, ptr %3, align 4
  %39 = add nsw i32 %38, 1
  store i32 %39, ptr %3, align 4
  br label %5

40:                                               ; preds = %5
  %41 = load ptr, ptr %2, align 8
  %42 = getelementptr inbounds %struct.CMixCoder, ptr %41, i32 0, i32 2
  store i32 0, ptr %42, align 8
  %43 = load ptr, ptr %2, align 8
  %44 = getelementptr inbounds %struct.CMixCoder, ptr %43, i32 0, i32 1
  %45 = load ptr, ptr %44, align 8
  %46 = icmp ne ptr %45, null
  br i1 %46, label %47, label %61

47:                                               ; preds = %40
  %48 = load ptr, ptr %2, align 8
  %49 = getelementptr inbounds %struct.CMixCoder, ptr %48, i32 0, i32 0
  %50 = load ptr, ptr %49, align 8
  %51 = getelementptr inbounds %struct.ISzAlloc, ptr %50, i32 0, i32 1
  %52 = load ptr, ptr %51, align 8
  %53 = load ptr, ptr %2, align 8
  %54 = getelementptr inbounds %struct.CMixCoder, ptr %53, i32 0, i32 0
  %55 = load ptr, ptr %54, align 8
  %56 = load ptr, ptr %2, align 8
  %57 = getelementptr inbounds %struct.CMixCoder, ptr %56, i32 0, i32 1
  %58 = load ptr, ptr %57, align 8
  call void %52(ptr noundef %55, ptr noundef %58)
  %59 = load ptr, ptr %2, align 8
  %60 = getelementptr inbounds %struct.CMixCoder, ptr %59, i32 0, i32 1
  store ptr null, ptr %60, align 8
  br label %61

61:                                               ; preds = %47, %40
  ret void
}

; Function Attrs: nounwind uwtable
define void @XzUnpacker_Free(ptr noundef %0) #0 {
  %2 = alloca ptr, align 8
  store ptr %0, ptr %2, align 8
  %3 = load ptr, ptr %2, align 8
  %4 = icmp ne ptr %3, null
  br i1 %4, label %6, label %5

5:                                                ; preds = %1
  br label %18

6:                                                ; preds = %1
  %7 = load ptr, ptr %2, align 8
  %8 = getelementptr inbounds %struct.CXzUnpacker, ptr %7, i32 0, i32 14
  call void @MixCoder_Free(ptr noundef %8)
  %9 = load ptr, ptr %2, align 8
  %10 = getelementptr inbounds %struct.CXzUnpacker, ptr %9, i32 0, i32 16
  %11 = getelementptr inbounds %struct.CXzCheck, ptr %10, i32 0, i32 3
  %12 = load ptr, ptr %11, align 8
  call void @cl_hash_destroy(ptr noundef %12)
  %13 = load ptr, ptr %2, align 8
  %14 = getelementptr inbounds %struct.CXzUnpacker, ptr %13, i32 0, i32 17
  %15 = load ptr, ptr %14, align 8
  call void @cl_hash_destroy(ptr noundef %15)
  %16 = load ptr, ptr %2, align 8
  %17 = getelementptr inbounds %struct.CXzUnpacker, ptr %16, i32 0, i32 17
  store ptr null, ptr %17, align 8
  br label %18

18:                                               ; preds = %6, %5
  ret void
}