; Function Attrs: nounwind uwtable
define void @XzUnpacker_Free(ptr noundef %0) local_unnamed_addr #1 {
  %.not = icmp eq ptr %0, null
  br i1 %.not, label %32, label %2

2:                                                ; preds = %1
  %3 = getelementptr inbounds nuw i8, ptr %0, i64 88
  %4 = getelementptr inbounds nuw i8, ptr %0, i64 104
  %5 = load i32, ptr %4, align 8
  %6 = icmp sgt i32 %5, 0
  br i1 %6, label %.lr.ph.i, label %._crit_edge.i

.lr.ph.i:                                         ; preds = %2
  %7 = getelementptr inbounds nuw i8, ptr %0, i64 200
  %8 = load ptr, ptr %3, align 8
  %9 = icmp eq ptr %8, null
  br i1 %9, label %._crit_edge.i, label %.lr.ph.split.i

.lr.ph.splitthread-pre-split.i:                   ; preds = %18
  %.pr.i = load ptr, ptr %3, align 8
  br label %.lr.ph.split.i

.lr.ph.split.i:                                   ; preds = %.lr.ph.i, %.lr.ph.splitthread-pre-split.i
  %10 = phi ptr [ %.pr.i, %.lr.ph.splitthread-pre-split.i ], [ %8, %.lr.ph.i ]
  %11 = phi i32 [ %19, %.lr.ph.splitthread-pre-split.i ], [ %5, %.lr.ph.i ]
  %indvars.iv.i = phi i64 [ %indvars.iv.next.i, %.lr.ph.splitthread-pre-split.i ], [ 0, %.lr.ph.i ]
  %12 = getelementptr inbounds nuw [4 x %struct._IStateCoder], ptr %7, i64 0, i64 %indvars.iv.i
  %.not18.i = icmp eq ptr %10, null
  br i1 %.not18.i, label %18, label %13

13:                                               ; preds = %.lr.ph.split.i
  %14 = load ptr, ptr %12, align 8
  %.not19.i = icmp eq ptr %14, null
  br i1 %.not19.i, label %18, label %15

15:                                               ; preds = %13
  %16 = getelementptr inbounds nuw i8, ptr %12, i64 8
  %17 = load ptr, ptr %16, align 8
  tail call void %17(ptr noundef nonnull %14, ptr noundef nonnull %10) #10
  %.pre.i = load i32, ptr %4, align 8
  br label %18

18:                                               ; preds = %15, %13, %.lr.ph.split.i
  %19 = phi i32 [ %11, %.lr.ph.split.i ], [ %11, %13 ], [ %.pre.i, %15 ]
  %indvars.iv.next.i = add nuw nsw i64 %indvars.iv.i, 1
  %20 = sext i32 %19 to i64
  %21 = icmp slt i64 %indvars.iv.next.i, %20
  br i1 %21, label %.lr.ph.splitthread-pre-split.i, label %._crit_edge.i, !llvm.loop !4

._crit_edge.i:                                    ; preds = %18, %.lr.ph.i, %2
  store i32 0, ptr %4, align 8
  %22 = getelementptr inbounds nuw i8, ptr %0, i64 96
  %23 = load ptr, ptr %22, align 8
  %.not.i = icmp eq ptr %23, null
  br i1 %.not.i, label %MixCoder_Free.exit, label %24

24:                                               ; preds = %._crit_edge.i
  %25 = load ptr, ptr %3, align 8
  %26 = getelementptr inbounds nuw i8, ptr %25, i64 8
  %27 = load ptr, ptr %26, align 8
  tail call void %27(ptr noundef %25, ptr noundef nonnull %23) #10
  store ptr null, ptr %22, align 8
  br label %MixCoder_Free.exit

MixCoder_Free.exit:                               ; preds = %._crit_edge.i, %24
  %28 = getelementptr inbounds nuw i8, ptr %0, i64 528
  %29 = load ptr, ptr %28, align 8
  tail call void @cl_hash_destroy(ptr noundef %29) #10
  %30 = getelementptr inbounds nuw i8, ptr %0, i64 536
  %31 = load ptr, ptr %30, align 8
  tail call void @cl_hash_destroy(ptr noundef %31) #10
  store ptr null, ptr %30, align 8
  br label %32

32:                                               ; preds = %1, %MixCoder_Free.exit
  ret void
}